target datalayout = "e-m:e-p270:32:32-p271:32:32-p272:64:64-i64:64-i128:128-f80:128-n8:16:32:64-S128"
target triple = "x86_64-pc-linux-gnu"

%"class.Ipopt::CGPenaltyData" = type <{ %"class.Ipopt::IpoptAdditionalData.base", [4 x i8], %"class.Ipopt::SmartPtr", i8, [7 x i8], %"class.Ipopt::SmartPtr", i8, i8, [2 x i8], i32, double, double, i8, [7 x i8], double, i8, [7 x i8], double, double, i8, [7 x i8] }>
%"class.Ipopt::IpoptAdditionalData.base" = type { %"class.Ipopt::ReferencedObject.base" }
%"class.Ipopt::ReferencedObject.base" = type <{ ptr, i32 }>
%"class.Ipopt::SmartPtr" = type { ptr }
%"class.Ipopt::ReferencedObject" = type <{ ptr, i32, [4 x i8] }>

@_ZTVN5Ipopt16ReferencedObjectE = linkonce_odr unnamed_addr constant { [4 x ptr] } { [4 x ptr] [ptr null, ptr @_ZTIN5Ipopt16ReferencedObjectE, ptr @_ZN5Ipopt16ReferencedObjectD2Ev, ptr @_ZN5Ipopt16ReferencedObjectD0Ev] }, comdat, align 8

; Function Attrs: mustprogress nounwind uwtable
define linkonce_odr noundef i32 @_ZNK5Ipopt16ReferencedObject14ReferenceCountEv(ptr noundef nonnull align 8 dereferenceable(12) %0) #5 comdat align 2 {
  %2 = alloca ptr, align 8
  store ptr %0, ptr %2, align 8
  %3 = load ptr, ptr %2, align 8
  %4 = getelementptr inbounds %"class.Ipopt::ReferencedObject", ptr %3, i32 0, i32 1
  %5 = load i32, ptr %4, align 8
  ret i32 %5
}

; Function Attrs: mustprogress nounwind uwtable
define linkonce_odr void @_ZNK5Ipopt16ReferencedObject10ReleaseRefEPKNS_10ReferencerE(ptr noundef nonnull align 8 dereferenceable(12) %0, ptr noundef %1) #5 comdat align 2 {
  %3 = alloca ptr, align 8
  %4 = alloca ptr, align 8
  store ptr %0, ptr %3, align 8
  store ptr %1, ptr %4, align 8
  %5 = load ptr, ptr %3, align 8
  %6 = getelementptr inbounds %"class.Ipopt::ReferencedObject", ptr %5, i32 0, i32 1
  %7 = load i32, ptr %6, align 8
  %8 = add nsw i32 %7, -1
  store i32 %8, ptr %6, align 8
  ret void
}

; Function Attrs: mustprogress nounwind uwtable
define linkonce_odr void @_ZN5Ipopt16ReferencedObjectD2Ev(ptr noundef nonnull align 8 dereferenceable(12) %0) unnamed_addr #5 comdat align 2 {
  %2 = alloca ptr, align 8
  store ptr %0, ptr %2, align 8
  %3 = load ptr, ptr %2, align 8
  store ptr getelementptr inbounds ({ [4 x ptr] }, ptr @_ZTVN5Ipopt16ReferencedObjectE, i32 0, i32 0, i32 2), ptr %3, align 8
  ret void
}

; Function Attrs: noreturn nounwind uwtable
define linkonce_odr hidden void @__clang_call_terminate(ptr noundef %0) #8 comdat {
  %2 = call ptr @__cxa_begin_catch(ptr %0) #3
  call void @_ZSt9terminatev() #9
  unreachable
}

; Function Attrs: mustprogress uwtable
define linkonce_odr void @_ZN5Ipopt8SmartPtrIKNS_14IteratesVectorEE15ReleasePointer_Ev(ptr noundef nonnull align 8 dereferenceable(8) %0) #4 comdat align 2 {
  %2 = alloca ptr, align 8
  store ptr %0, ptr %2, align 8
  %3 = load ptr, ptr %2, align 8
  %4 = getelementptr inbounds %"class.Ipopt::SmartPtr", ptr %3, i32 0, i32 0
  %5 = load ptr, ptr %4, align 8
  %6 = icmp ne ptr %5, null
  br i1 %6, label %7, label %24

7:                                                ; preds = %1
  %8 = getelementptr inbounds %"class.Ipopt::SmartPtr", ptr %3, i32 0, i32 0
  %9 = load ptr, ptr %8, align 8
  call void @_ZNK5Ipopt16ReferencedObject10ReleaseRefEPKNS_10ReferencerE(ptr noundef nonnull align 8 dereferenceable(12) %9, ptr noundef %3)
  %10 = getelementptr inbounds %"class.Ipopt::SmartPtr", ptr %3, i32 0, i32 0
  %11 = load ptr, ptr %10, align 8
  %12 = call noundef i32 @_ZNK5Ipopt16ReferencedObject14ReferenceCountEv(ptr noundef nonnull align 8 dereferenceable(12) %11)
  %13 = icmp eq i32 %12, 0
  br i1 %13, label %14, label %23

14:                                               ; preds = %7
  %15 = getelementptr inbounds %"class.Ipopt::SmartPtr", ptr %3, i32 0, i32 0
  %16 = load ptr, ptr %15, align 8
  %17 = icmp eq ptr %16, null
  br i1 %17, label %22, label %18

18:                                               ; preds = %14
  %19 = load ptr, ptr %16, align 8
  %20 = getelementptr inbounds ptr, ptr %19, i64 1
  %21 = load ptr, ptr %20, align 8
  call void %21(ptr noundef nonnull align 8 dereferenceable(280) %16) #3
  br label %22

22:                                               ; preds = %18, %14
  br label %23

23:                                               ; preds = %22, %7
  br label %24

24:                                               ; preds = %23, %1
  ret void
}

; Function Attrs: mustprogress nounwind uwtable
define linkonce_odr void @_ZN5Ipopt16ReferencedObjectC2Ev(ptr noundef nonnull align 8 dereferenceable(12) %0) unnamed_addr #5 comdat align 2 {
  %2 = alloca ptr, align 8
  store ptr %0, ptr %2, align 8
  %3 = load ptr, ptr %2, align 8
  store ptr getelementptr inbounds ({ [4 x ptr] }, ptr @_ZTVN5Ipopt16ReferencedObjectE, i32 0, i32 0, i32 2), ptr %3, align 8
  %4 = getelementptr inbounds %"class.Ipopt::ReferencedObject", ptr %3, i32 0, i32 1
  store i32 0, ptr %4, align 8
  ret void
}

; Function Attrs: mustprogress nounwind uwtable
define linkonce_odr void @_ZN5Ipopt19IpoptAdditionalDataD2Ev(ptr noundef nonnull align 8 dereferenceable(12) %0) unnamed_addr #5 comdat align 2 {
  %2 = alloca ptr, align 8
  store ptr %0, ptr %2, align 8
  %3 = load ptr, ptr %2, align 8
  call void @_ZN5Ipopt16ReferencedObjectD2Ev(ptr noundef nonnull align 8 dereferenceable(12) %3) #3
  ret void
}

; Function Attrs: mustprogress nounwind uwtable
define linkonce_odr void @_ZN5Ipopt8SmartPtrIKNS_14IteratesVectorEED2Ev(ptr noundef nonnull align 8 dereferenceable(8) %0) unnamed_addr #5 comdat align 2 personality ptr @__gxx_personality_v0 {
  %2 = alloca ptr, align 8
  store ptr %0, ptr %2, align 8
  %3 = load ptr, ptr %2, align 8
  invoke void @_ZN5Ipopt8SmartPtrIKNS_14IteratesVectorEE15ReleasePointer_Ev(ptr noundef nonnull align 8 dereferenceable(8) %3)
          to label %4 unwind label %5

4:                                                ; preds = %1
  ret void

5:                                                ; preds = %1
  %6 = landingpad { ptr, i32 }
          catch ptr null
  %7 = extractvalue { ptr, i32 } %6, 0
  call void @__clang_call_terminate(ptr %7) #9
  unreachable
}

; Function Attrs: mustprogress nounwind uwtable
define linkonce_odr void @_ZN5Ipopt8SmartPtrIKNS_14IteratesVectorEEC2Ev(ptr noundef nonnull align 8 dereferenceable(8) %0) unnamed_addr #5 comdat align 2 {
  %2 = alloca ptr, align 8
  store ptr %0, ptr %2, align 8
  %3 = load ptr, ptr %2, align 8
  %4 = getelementptr inbounds %"class.Ipopt::SmartPtr", ptr %3, i32 0, i32 0
  store ptr null, ptr %4, align 8
  ret void
}

; Function Attrs: mustprogress uwtable
define linkonce_odr void @_ZN5Ipopt19IpoptAdditionalDataC2Ev(ptr noundef nonnull align 8 dereferenceable(12) %0) unnamed_addr #4 comdat align 2 {
  %2 = alloca ptr, align 8
  store ptr %0, ptr %2, align 8
  %3 = load ptr, ptr %2, align 8
  call void @_ZN5Ipopt16ReferencedObjectC2Ev(ptr noundef nonnull align 8 dereferenceable(12) %3)
  store ptr getelementptr inbounds ({ [7 x ptr] }, ptr @_ZTVN5Ipopt19IpoptAdditionalDataE, i32 0, i32 0, i32 2), ptr %3, align 8
  ret void
}

; Function Attrs: mustprogress uwtable
define void @_ZN5Ipopt13CGPenaltyDataC2Ev(ptr noundef nonnull align 8 dereferenceable(105) %0) unnamed_addr #4 align 2 personality ptr @__gxx_personality_v0 {
  %2 = alloca ptr, align 8
  %3 = alloca ptr, align 8
  %4 = alloca i32, align 4
  store ptr %0, ptr %2, align 8
  %5 = load ptr, ptr %2, align 8
  call void @_ZN5Ipopt19IpoptAdditionalDataC2Ev(ptr noundef nonnull align 8 dereferenceable(12) %5)
  store ptr getelementptr inbounds ({ [7 x ptr] }, ptr @_ZTVN5Ipopt13CGPenaltyDataE, i32 0, i32 0, i32 2), ptr %5, align 8
  %6 = getelementptr inbounds %"class.Ipopt::CGPenaltyData", ptr %5, i32 0, i32 2
  invoke void @_ZN5Ipopt8SmartPtrIKNS_14IteratesVectorEEC2Ev(ptr noundef nonnull align 8 dereferenceable(8) %6)
          to label %7 unwind label %10

7:                                                ; preds = %1
  %8 = getelementptr inbounds %"class.Ipopt::CGPenaltyData", ptr %5, i32 0, i32 5
  invoke void @_ZN5Ipopt8SmartPtrIKNS_14IteratesVectorEEC2Ev(ptr noundef nonnull align 8 dereferenceable(8) %8)
          to label %9 unwind label %14

9:                                                ; preds = %7
  ret void

10:                                               ; preds = %1
  %11 = landingpad { ptr, i32 }
          cleanup
  %12 = extractvalue { ptr, i32 } %11, 0
  store ptr %12, ptr %3, align 8
  %13 = extractvalue { ptr, i32 } %11, 1
  store i32 %13, ptr %4, align 4
  br label %18

14:                                               ; preds = %7
  %15 = landingpad { ptr, i32 }
          cleanup
  %16 = extractvalue { ptr, i32 } %15, 0
  store ptr %16, ptr %3, align 8
  %17 = extractvalue { ptr, i32 } %15, 1
  store i32 %17, ptr %4, align 4
  call void @_ZN5Ipopt8SmartPtrIKNS_14IteratesVectorEED2Ev(ptr noundef nonnull align 8 dereferenceable(8) %6) #3
  br label %18

18:                                               ; preds = %14, %10
  call void @_ZN5Ipopt19IpoptAdditionalDataD2Ev(ptr noundef nonnull align 8 dereferenceable(12) %5) #3
  br label %19

19:                                               ; preds = %18
  %20 = load ptr, ptr %3, align 8
  %21 = load i32, ptr %4, align 4
  %22 = insertvalue { ptr, i32 } poison, ptr %20, 0
  %23 = insertvalue { ptr, i32 } %22, i32 %21, 1
  resume { ptr, i32 } %23
}